target datalayout = "e-m:e-p270:32:32-p271:32:32-p272:64:64-i64:64-i128:128-f80:128-n8:16:32:64-S128"
target triple = "x86_64-pc-linux-gnu"

@custom_ext_error = internal global i32 0, align 4
@custom_ext_cli_string = internal constant [4 x i8] c"abc\00", align 1

; Function Attrs: nounwind uwtable
define internal i32 @custom_ext_2_srv_parse_cb(ptr noundef %0, i32 noundef %1, ptr noundef %2, i64 noundef %3, ptr noundef %4, ptr noundef %5) #0 {
  %7 = alloca ptr, align 8
  %8 = alloca i32, align 4
  %9 = alloca ptr, align 8
  %10 = alloca i64, align 8
  %11 = alloca ptr, align 8
  %12 = alloca ptr, align 8
  store ptr %0, ptr %7, align 8, !tbaa !17
  store i32 %1, ptr %8, align 4, !tbaa !4
  store ptr %2, ptr %9, align 8, !tbaa !11
  store i64 %3, ptr %10, align 8, !tbaa !19
  store ptr %4, ptr %11, align 8, !tbaa !59
  store ptr %5, ptr %12, align 8, !tbaa !53
  %13 = load i32, ptr %8, align 4, !tbaa !4
  %14 = icmp ne i32 %13, 1002
  br i1 %14, label %15, label %16

15:                                               ; preds = %6
  store i32 1, ptr @custom_ext_error, align 4, !tbaa !4
  br label %16

16:                                               ; preds = %15, %6
  %17 = load i64, ptr %10, align 8, !tbaa !19
  %18 = icmp ne i64 %17, 3
  br i1 %18, label %19, label %20

19:                                               ; preds = %16
  store i32 1, ptr @custom_ext_error, align 4, !tbaa !4
  br label %20

20:                                               ; preds = %19, %16
  %21 = load ptr, ptr %9, align 8, !tbaa !11
  %22 = load i64, ptr %10, align 8, !tbaa !19
  %23 = call i32 @memcmp(ptr noundef %21, ptr noundef @custom_ext_cli_string, i64 noundef %22) #11
  %24 = icmp ne i32 %23, 0
  br i1 %24, label %25, label %26

25:                                               ; preds = %20
  store i32 1, ptr @custom_ext_error, align 4, !tbaa !4
  br label %26

26:                                               ; preds = %25, %20
  ret i32 1
}